; Function Attrs: inlinehint nofree norecurse nosync nounwind memory(argmem: readwrite) uwtable
define internal void @put_pixels2_xy2_8_c(ptr noundef writeonly captures(none) %0, ptr noundef readonly captures(none) %1, i64 noundef %2, i32 noundef %3) #2 {
  %5 = icmp sgt i32 %3, 0
  br i1 %5, label %.lr.ph.preheader, label %._crit_edge

.lr.ph.preheader:                                 ; preds = %4
  %6 = getelementptr inbounds nuw i8, ptr %1, i64 1
  %7 = load i8, ptr %6, align 1, !tbaa !8
  %8 = zext i8 %7 to i32
  %9 = add nuw nsw i32 %8, 2
  %10 = getelementptr inbounds nuw i8, ptr %1, i64 2
  %11 = load i8, ptr %10, align 1, !tbaa !8
  %12 = zext i8 %11 to i32
  %13 = add nuw nsw i32 %9, %12
  %14 = load i8, ptr %1, align 1, !tbaa !8
  %15 = zext i8 %14 to i32
  %16 = add nuw nsw i32 %9, %15
  br label %.lr.ph

.lr.ph:                                           ; preds = %.lr.ph.preheader, %.lr.ph
  %.050 = phi i32 [ %46, %.lr.ph ], [ %13, %.lr.ph.preheader ]
  %.04249 = phi i32 [ %42, %.lr.ph ], [ %16, %.lr.ph.preheader ]
  %.04348 = phi ptr [ %54, %.lr.ph ], [ %0, %.lr.ph.preheader ]
  %.pn47 = phi ptr [ %34, %.lr.ph ], [ %1, %.lr.ph.preheader ]
  %.04546 = phi i32 [ %55, %.lr.ph ], [ 0, %.lr.ph.preheader ]
  %.044 = getelementptr inbounds i8, ptr %.pn47, i64 %2
  %17 = load i8, ptr %.044, align 1, !tbaa !8
  %18 = zext i8 %17 to i32
  %19 = getelementptr inbounds nuw i8, ptr %.044, i64 1
  %20 = load i8, ptr %19, align 1, !tbaa !8
  %21 = zext i8 %20 to i32
  %22 = add nuw nsw i32 %21, %18
  %23 = getelementptr inbounds nuw i8, ptr %.044, i64 2
  %24 = load i8, ptr %23, align 1, !tbaa !8
  %25 = zext i8 %24 to i32
  %26 = add nuw nsw i32 %25, %21
  %27 = add nuw nsw i32 %22, %.04249
  %28 = lshr i32 %27, 2
  %29 = trunc nuw i32 %28 to i8
  store i8 %29, ptr %.04348, align 1, !tbaa !8
  %30 = add nuw nsw i32 %26, %.050
  %31 = lshr i32 %30, 2
  %32 = trunc nuw i32 %31 to i8
  %33 = getelementptr inbounds nuw i8, ptr %.04348, i64 1
  store i8 %32, ptr %33, align 1, !tbaa !8
  %34 = getelementptr inbounds i8, ptr %.044, i64 %2
  %35 = getelementptr inbounds i8, ptr %.04348, i64 %2
  %36 = load i8, ptr %34, align 1, !tbaa !8
  %37 = zext i8 %36 to i32
  %38 = getelementptr inbounds nuw i8, ptr %34, i64 1
  %39 = load i8, ptr %38, align 1, !tbaa !8
  %40 = zext i8 %39 to i32
  %41 = add nuw nsw i32 %40, 2
  %42 = add nuw nsw i32 %41, %37
  %43 = getelementptr inbounds nuw i8, ptr %34, i64 2
  %44 = load i8, ptr %43, align 1, !tbaa !8
  %45 = zext i8 %44 to i32
  %46 = add nuw nsw i32 %41, %45
  %47 = add nuw nsw i32 %42, %22
  %48 = lshr i32 %47, 2
  %49 = trunc nuw i32 %48 to i8
  store i8 %49, ptr %35, align 1, !tbaa !8
  %50 = add nuw nsw i32 %46, %26
  %51 = lshr i32 %50, 2
  %52 = trunc nuw i32 %51 to i8
  %53 = getelementptr inbounds nuw i8, ptr %35, i64 1
  store i8 %52, ptr %53, align 1, !tbaa !8
  %54 = getelementptr inbounds i8, ptr %35, i64 %2
  %55 = add nuw nsw i32 %.04546, 2
  %56 = icmp slt i32 %55, %3
  br i1 %56, label %.lr.ph, label %._crit_edge, !llvm.loop !23

._crit_edge:                                      ; preds = %.lr.ph, %4
  ret void
}